target datalayout = "e-m:e-p270:32:32-p271:32:32-p272:64:64-i64:64-i128:128-f80:128-n8:16:32:64-S128"
target triple = "x86_64-pc-linux-gnu"

%struct.rb_data_type_struct = type { ptr, %struct.anon, ptr, ptr, i64 }
%struct.anon = type { ptr, ptr, ptr, ptr, [1 x ptr] }

@ossl_pkcs7_type = internal constant %struct.rb_data_type_struct { ptr @.str.53, %struct.anon { ptr null, ptr @ossl_pkcs7_free, ptr null, ptr null, [1 x ptr] zeroinitializer }, ptr null, ptr null, i64 33 }, align 8
@ePKCS7Error = internal global i64 0, align 8
@rb_eRuntimeError = external global i64, align 8
@.str.1 = private unnamed_addr constant [26 x i8] c"PKCS7 wasn't initialized.\00", align 1
@.str.72 = private unnamed_addr constant [23 x i8] c"must specify a boolean\00", align 1

; Function Attrs: nounwind sspstrong uwtable
define internal i64 @ossl_pkcs7_set_detached(i64 noundef %0, i64 noundef %1) #0 {
  %3 = alloca i64, align 8
  %4 = alloca i64, align 8
  %5 = alloca ptr, align 8
  store i64 %0, ptr %3, align 8, !tbaa !11
  store i64 %1, ptr %4, align 8, !tbaa !11
  call void @llvm.lifetime.start.p0(i64 8, ptr %5) #16
  br label %6

6:                                                ; preds = %2
  %7 = load i64, ptr %3, align 8, !tbaa !11
  %8 = call ptr @rb_check_typeddata(i64 noundef %7, ptr noundef @ossl_pkcs7_type)
  store ptr %8, ptr %5, align 8, !tbaa !6
  %9 = load ptr, ptr %5, align 8, !tbaa !6
  %10 = icmp ne ptr %9, null
  br i1 %10, label %13, label %11

11:                                               ; preds = %6
  %12 = load i64, ptr @rb_eRuntimeError, align 8, !tbaa !11
  call void (i64, ptr, ...) @ossl_raise(i64 noundef %12, ptr noundef @.str.1) #17
  unreachable

13:                                               ; preds = %6
  br label %14

14:                                               ; preds = %13
  br label %15

15:                                               ; preds = %14
  %16 = load i64, ptr %4, align 8, !tbaa !11
  %17 = icmp ne i64 %16, 20
  br i1 %17, label %18, label %23

18:                                               ; preds = %15
  %19 = load i64, ptr %4, align 8, !tbaa !11
  %20 = icmp ne i64 %19, 0
  br i1 %20, label %21, label %23

21:                                               ; preds = %18
  %22 = load i64, ptr @ePKCS7Error, align 8, !tbaa !11
  call void (i64, ptr, ...) @ossl_raise(i64 noundef %22, ptr noundef @.str.72) #17
  unreachable

23:                                               ; preds = %18, %15
  %24 = load ptr, ptr %5, align 8, !tbaa !6
  %25 = load i64, ptr %4, align 8, !tbaa !11
  %26 = icmp eq i64 %25, 20
  %27 = select i1 %26, i32 1, i32 0
  %28 = sext i32 %27 to i64
  %29 = call i64 @PKCS7_ctrl(ptr noundef %24, i32 noundef 1, i64 noundef %28, ptr noundef null)
  %30 = icmp ne i64 %29, 0
  br i1 %30, label %33, label %31

31:                                               ; preds = %23
  %32 = load i64, ptr @ePKCS7Error, align 8, !tbaa !11
  call void (i64, ptr, ...) @ossl_raise(i64 noundef %32, ptr noundef null) #17
  unreachable

33:                                               ; preds = %23
  %34 = load i64, ptr %4, align 8, !tbaa !11
  call void @llvm.lifetime.end.p0(i64 8, ptr %5) #16
  ret i64 %34
}