; Function Attrs: nounwind sspstrong uwtable
define internal range(i64 0, 21) i64 @ossl_pkcs7_set_detached(i64 noundef %0, i64 noundef returned %1) #0 {
  %3 = tail call ptr @rb_check_typeddata(i64 noundef %0, ptr noundef nonnull @ossl_pkcs7_type) #5
  %.not = icmp eq ptr %3, null
  br i1 %.not, label %4, label %6

4:                                                ; preds = %2
  %5 = load i64, ptr @rb_eRuntimeError, align 8, !tbaa !6
  tail call void (i64, ptr, ...) @ossl_raise(i64 noundef %5, ptr noundef nonnull @.str.1) #6
  unreachable

6:                                                ; preds = %2
  switch i64 %1, label %7 [
    i64 20, label %9
    i64 0, label %9
  ]

7:                                                ; preds = %6
  %8 = load i64, ptr @ePKCS7Error, align 8, !tbaa !6
  tail call void (i64, ptr, ...) @ossl_raise(i64 noundef %8, ptr noundef nonnull @.str.72) #6
  unreachable

9:                                                ; preds = %6, %6
  %10 = icmp eq i64 %1, 20
  %11 = zext i1 %10 to i64
  %12 = tail call i64 @PKCS7_ctrl(ptr noundef nonnull %3, i32 noundef 1, i64 noundef %11, ptr noundef null) #5
  %.not7 = icmp eq i64 %12, 0
  br i1 %.not7, label %13, label %15

13:                                               ; preds = %9
  %14 = load i64, ptr @ePKCS7Error, align 8, !tbaa !6
  tail call void (i64, ptr, ...) @ossl_raise(i64 noundef %14, ptr noundef null) #6
  unreachable

15:                                               ; preds = %9
  ret i64 %1
}